
C:\Users\rolfd\AppData\Local\Temp\VMBuilds\Jeannie\teensy41\Release/Jeannie.ino.elf:     file format elf32-littlearm


Disassembly of section .text.code:

60001400 <memory_copy>:
}

__attribute__((section(".startup"), optimize("O1")))
static void memory_copy(uint32_t *dest, const uint32_t *src, uint32_t *dest_end)
{
	if (dest == src) return;
60001400:	4288      	cmp	r0, r1
60001402:	d007      	beq.n	60001414 <memory_copy+0x14>
	while (dest < dest_end) {
60001404:	4290      	cmp	r0, r2
60001406:	d205      	bcs.n	60001414 <memory_copy+0x14>
		*dest++ = *src++;
60001408:	f851 3b04 	ldr.w	r3, [r1], #4
6000140c:	f840 3b04 	str.w	r3, [r0], #4
	while (dest < dest_end) {
60001410:	4282      	cmp	r2, r0
60001412:	d8f9      	bhi.n	60001408 <memory_copy+0x8>
	}
}
60001414:	4770      	bx	lr
60001416:	bf00      	nop

60001418 <memory_clear>:

__attribute__((section(".startup"), optimize("O1")))
static void memory_clear(uint32_t *dest, uint32_t *dest_end)
{
	while (dest < dest_end) {
60001418:	4288      	cmp	r0, r1
6000141a:	d204      	bcs.n	60001426 <memory_clear+0xe>
		*dest++ = 0;
6000141c:	2300      	movs	r3, #0
6000141e:	f840 3b04 	str.w	r3, [r0], #4
	while (dest < dest_end) {
60001422:	4281      	cmp	r1, r0
60001424:	d8fb      	bhi.n	6000141e <memory_clear+0x6>
	}
}
60001426:	4770      	bx	lr

60001428 <ResetHandler2>:
{
60001428:	e92d 4888 	stmdb	sp!, {r3, r7, fp, lr}
	startup_early_hook(); // must be in FLASHMEM, as ITCM is not yet initialized!
6000142c:	f035 f89a 	bl	60036564 <startup_default_early_hook>
	PMU_MISC0_SET = 1<<3; //Use bandgap-based bias currents for best performance (Page 1175)
60001430:	2408      	movs	r4, #8
60001432:	4b61      	ldr	r3, [pc, #388]	; (600015b8 <ResetHandler2+0x190>)
	memory_copy(&_stext, &_stextload, &_etext);
60001434:	4a61      	ldr	r2, [pc, #388]	; (600015bc <ResetHandler2+0x194>)
	PMU_MISC0_SET = 1<<3; //Use bandgap-based bias currents for best performance (Page 1175)
60001436:	f8c3 4154 	str.w	r4, [r3, #340]	; 0x154
	memory_copy(&_stext, &_stextload, &_etext);
6000143a:	4961      	ldr	r1, [pc, #388]	; (600015c0 <ResetHandler2+0x198>)
6000143c:	4861      	ldr	r0, [pc, #388]	; (600015c4 <ResetHandler2+0x19c>)
6000143e:	f7ff ffdf 	bl	60001400 <memory_copy>
	memory_copy(&_sdata, &_sdataload, &_edata);
60001442:	4a61      	ldr	r2, [pc, #388]	; (600015c8 <ResetHandler2+0x1a0>)
60001444:	4961      	ldr	r1, [pc, #388]	; (600015cc <ResetHandler2+0x1a4>)
60001446:	4862      	ldr	r0, [pc, #392]	; (600015d0 <ResetHandler2+0x1a8>)
60001448:	f7ff ffda 	bl	60001400 <memory_copy>
	memory_clear(&_sbss, &_ebss);
6000144c:	4961      	ldr	r1, [pc, #388]	; (600015d4 <ResetHandler2+0x1ac>)
6000144e:	4862      	ldr	r0, [pc, #392]	; (600015d8 <ResetHandler2+0x1b0>)
60001450:	f7ff ffe2 	bl	60001418 <memory_clear>
	SCB_CPACR = 0x00F00000;
60001454:	4c61      	ldr	r4, [pc, #388]	; (600015dc <ResetHandler2+0x1b4>)
60001456:	f04f 21e0 	mov.w	r1, #3758153728	; 0xe000e000
6000145a:	f44f 0070 	mov.w	r0, #15728640	; 0xf00000
	for (i=0; i < NVIC_NUM_INTERRUPTS + 16; i++) _VectorsRam[i] = &unused_interrupt_vector;
6000145e:	2300      	movs	r3, #0
60001460:	4a5f      	ldr	r2, [pc, #380]	; (600015e0 <ResetHandler2+0x1b8>)
	SCB_CPACR = 0x00F00000;
60001462:	f8c1 0d88 	str.w	r0, [r1, #3464]	; 0xd88
	for (i=0; i < NVIC_NUM_INTERRUPTS + 16; i++) _VectorsRam[i] = &unused_interrupt_vector;
60001466:	f844 2023 	str.w	r2, [r4, r3, lsl #2]
6000146a:	3301      	adds	r3, #1
6000146c:	2bb0      	cmp	r3, #176	; 0xb0
6000146e:	d1fa      	bne.n	60001466 <ResetHandler2+0x3e>
60001470:	4b5c      	ldr	r3, [pc, #368]	; (600015e4 <ResetHandler2+0x1bc>)
	for (i=0; i < NVIC_NUM_INTERRUPTS; i++) NVIC_SET_PRIORITY(i, 128);
60001472:	2180      	movs	r1, #128	; 0x80
60001474:	4a5c      	ldr	r2, [pc, #368]	; (600015e8 <ResetHandler2+0x1c0>)
60001476:	f803 1b01 	strb.w	r1, [r3], #1
6000147a:	4293      	cmp	r3, r2
6000147c:	d1fb      	bne.n	60001476 <ResetHandler2+0x4e>
	SCB_VTOR = (uint32_t)_VectorsRam;
6000147e:	f04f 25e0 	mov.w	r5, #3758153728	; 0xe000e000
	CCM_ANALOG_PFD_528_SET = (1 << 31) | (1 << 23) | (1 << 15) | (1 << 7);
60001482:	4e4d      	ldr	r6, [pc, #308]	; (600015b8 <ResetHandler2+0x190>)
60001484:	f04f 3980 	mov.w	r9, #2155905152	; 0x80808080
	CCM_ANALOG_PFD_528 = 0x2018101B; // PFD0:352, PFD1:594, PFD2:396, PFD3:297 MHz 	
60001488:	f8df b18c 	ldr.w	fp, [pc, #396]	; 60001618 <ResetHandler2+0x1f0>
	CCM_ANALOG_PFD_480 = 0x13110D0C; // PFD0:720, PFD1:664, PFD2:508, PFD3:454 MHz
6000148c:	f8df a18c 	ldr.w	sl, [pc, #396]	; 6000161c <ResetHandler2+0x1f4>
	IOMUXC_GPR_GPR26 = 0xFFFFFFFF;
60001490:	f04f 31ff 	mov.w	r1, #4294967295
	SCB_VTOR = (uint32_t)_VectorsRam;
60001494:	f8c5 4d08 	str.w	r4, [r5, #3336]	; 0xd08
	SYST_CVR = 0;
60001498:	2700      	movs	r7, #0
	CCM_ANALOG_PFD_528_SET = (1 << 31) | (1 << 23) | (1 << 15) | (1 << 7);
6000149a:	f8c6 9104 	str.w	r9, [r6, #260]	; 0x104
	CCM_ANALOG_PFD_528 = 0x2018101B; // PFD0:352, PFD1:594, PFD2:396, PFD3:297 MHz 	
6000149e:	f8c6 b100 	str.w	fp, [r6, #256]	; 0x100
	CCM_ANALOG_PFD_480_SET = (1 << 31) | (1 << 23) | (1 << 15) | (1 << 7);	
600014a2:	f8c6 90f4 	str.w	r9, [r6, #244]	; 0xf4
	CCM_ANALOG_PFD_480 = 0x13110D0C; // PFD0:720, PFD1:664, PFD2:508, PFD3:454 MHz
600014a6:	f8c6 a0f0 	str.w	sl, [r6, #240]	; 0xf0
	SCB_SHCSR |= SCB_SHCSR_MEMFAULTENA | SCB_SHCSR_BUSFAULTENA | SCB_SHCSR_USGFAULTENA;
600014aa:	f8d5 3d24 	ldr.w	r3, [r5, #3364]	; 0xd24
	CCM_CSCMR1 = (CCM_CSCMR1 & ~CCM_CSCMR1_PERCLK_PODF(0x3F)) | CCM_CSCMR1_PERCLK_CLK_SEL;
600014ae:	f8df 8170 	ldr.w	r8, [pc, #368]	; 60001620 <ResetHandler2+0x1f8>
	SCB_SHCSR |= SCB_SHCSR_MEMFAULTENA | SCB_SHCSR_BUSFAULTENA | SCB_SHCSR_USGFAULTENA;
600014b2:	f443 23e0 	orr.w	r3, r3, #458752	; 0x70000
	IOMUXC_GPR_GPR26 = 0xFFFFFFFF;
600014b6:	4a4d      	ldr	r2, [pc, #308]	; (600015ec <ResetHandler2+0x1c4>)
	SCB_SHCSR |= SCB_SHCSR_MEMFAULTENA | SCB_SHCSR_BUSFAULTENA | SCB_SHCSR_USGFAULTENA;
600014b8:	f8c5 3d24 	str.w	r3, [r5, #3364]	; 0xd24
	CCM_CSCMR1 = (CCM_CSCMR1 & ~CCM_CSCMR1_PERCLK_PODF(0x3F)) | CCM_CSCMR1_PERCLK_CLK_SEL;
600014bc:	f8d8 301c 	ldr.w	r3, [r8, #28]
600014c0:	f023 037f 	bic.w	r3, r3, #127	; 0x7f
600014c4:	f043 0340 	orr.w	r3, r3, #64	; 0x40
600014c8:	f8c8 301c 	str.w	r3, [r8, #28]
	CCM_CSCDR1 = (CCM_CSCDR1 & ~CCM_CSCDR1_UART_CLK_PODF(0x3F)) | CCM_CSCDR1_UART_CLK_SEL;
600014cc:	f8d8 3024 	ldr.w	r3, [r8, #36]	; 0x24
600014d0:	f023 037f 	bic.w	r3, r3, #127	; 0x7f
600014d4:	f043 0340 	orr.w	r3, r3, #64	; 0x40
600014d8:	f8c8 3024 	str.w	r3, [r8, #36]	; 0x24
	IOMUXC_GPR_GPR26 = 0xFFFFFFFF;
600014dc:	6691      	str	r1, [r2, #104]	; 0x68
	IOMUXC_GPR_GPR27 = 0xFFFFFFFF;
600014de:	66d1      	str	r1, [r2, #108]	; 0x6c
	IOMUXC_GPR_GPR28 = 0xFFFFFFFF;
600014e0:	6711      	str	r1, [r2, #112]	; 0x70
	IOMUXC_GPR_GPR29 = 0xFFFFFFFF;
600014e2:	6751      	str	r1, [r2, #116]	; 0x74
	configure_cache();
600014e4:	f035 f846 	bl	60036574 <configure_cache>
	_VectorsRam[14] = pendablesrvreq_isr;
600014e8:	4b41      	ldr	r3, [pc, #260]	; (600015f0 <ResetHandler2+0x1c8>)
	systick_cycle_count = ARM_DWT_CYCCNT; // compiled 0, corrected w/1st systick
600014ea:	4942      	ldr	r1, [pc, #264]	; (600015f4 <ResetHandler2+0x1cc>)
	_VectorsRam[14] = pendablesrvreq_isr;
600014ec:	63a3      	str	r3, [r4, #56]	; 0x38
	_VectorsRam[15] = systick_isr;
600014ee:	4b42      	ldr	r3, [pc, #264]	; (600015f8 <ResetHandler2+0x1d0>)
600014f0:	63e3      	str	r3, [r4, #60]	; 0x3c
	SYST_RVR = (SYSTICK_EXT_FREQ / 1000) - 1;
600014f2:	2363      	movs	r3, #99	; 0x63
600014f4:	616b      	str	r3, [r5, #20]
	SYST_CSR = SYST_CSR_TICKINT | SYST_CSR_ENABLE;
600014f6:	2303      	movs	r3, #3
	SYST_CVR = 0;
600014f8:	61af      	str	r7, [r5, #24]
	SYST_CSR = SYST_CSR_TICKINT | SYST_CSR_ENABLE;
600014fa:	612b      	str	r3, [r5, #16]
	SCB_SHPR3 = 0x20200000;  // Systick, pendablesrvreq_isr = priority 32;
600014fc:	4b3f      	ldr	r3, [pc, #252]	; (600015fc <ResetHandler2+0x1d4>)
600014fe:	f8c5 3d20 	str.w	r3, [r5, #3360]	; 0xd20
	ARM_DEMCR |= ARM_DEMCR_TRCENA;
60001502:	f8d5 3dfc 	ldr.w	r3, [r5, #3580]	; 0xdfc
60001506:	f043 7380 	orr.w	r3, r3, #16777216	; 0x1000000
6000150a:	f8c5 3dfc 	str.w	r3, [r5, #3580]	; 0xdfc
	ARM_DWT_CTRL |= ARM_DWT_CTRL_CYCCNTENA; // turn on cycle counter
6000150e:	4b3c      	ldr	r3, [pc, #240]	; (60001600 <ResetHandler2+0x1d8>)
60001510:	681a      	ldr	r2, [r3, #0]
60001512:	f042 0201 	orr.w	r2, r2, #1
60001516:	601a      	str	r2, [r3, #0]
	systick_cycle_count = ARM_DWT_CYCCNT; // compiled 0, corrected w/1st systick
60001518:	685b      	ldr	r3, [r3, #4]
6000151a:	600b      	str	r3, [r1, #0]
	usb_pll_start();	
6000151c:	f035 fa68 	bl	600369f0 <usb_pll_start>
	CCM_ANALOG_PFD_528_SET = (1 << 31) | (1 << 23) | (1 << 15) | (1 << 7);
60001520:	f8c6 9104 	str.w	r9, [r6, #260]	; 0x104
	set_arm_clock(F_CPU);
60001524:	4837      	ldr	r0, [pc, #220]	; (60001604 <ResetHandler2+0x1dc>)
	CCM_ANALOG_PFD_528 = 0x2018101B; // PFD0:352, PFD1:594, PFD2:396, PFD3:297 MHz 	
60001526:	f8c6 b100 	str.w	fp, [r6, #256]	; 0x100
	CCM_ANALOG_PFD_480_SET = (1 << 31) | (1 << 23) | (1 << 15) | (1 << 7);	
6000152a:	f8c6 90f4 	str.w	r9, [r6, #244]	; 0xf4
	CCM_ANALOG_PFD_480 = 0x13110D0C; // PFD0:720, PFD1:664, PFD2:508, PFD3:454 MHz
6000152e:	f8c6 a0f0 	str.w	sl, [r6, #240]	; 0xf0
	set_arm_clock(F_CPU);
60001532:	f035 fc81 	bl	60036e38 <__set_arm_clock_veneer>
	CCM_CCGR1 |= CCM_CCGR1_PIT(CCM_CCGR_ON);
60001536:	f8d8 106c 	ldr.w	r1, [r8, #108]	; 0x6c
	PIT_MCR = 0;
6000153a:	4b33      	ldr	r3, [pc, #204]	; (60001608 <ResetHandler2+0x1e0>)
	if (!(SNVS_LPCR & SNVS_LPCR_SRTC_ENV)) {
6000153c:	4a33      	ldr	r2, [pc, #204]	; (6000160c <ResetHandler2+0x1e4>)
	CCM_CCGR1 |= CCM_CCGR1_PIT(CCM_CCGR_ON);
6000153e:	f441 5140 	orr.w	r1, r1, #12288	; 0x3000
60001542:	f8c8 106c 	str.w	r1, [r8, #108]	; 0x6c
	PIT_MCR = 0;
60001546:	601f      	str	r7, [r3, #0]
	PIT_TCTRL0 = 0;
60001548:	f8c3 7108 	str.w	r7, [r3, #264]	; 0x108
	PIT_TCTRL1 = 0;
6000154c:	f8c3 7118 	str.w	r7, [r3, #280]	; 0x118
	PIT_TCTRL2 = 0;
60001550:	f8c3 7128 	str.w	r7, [r3, #296]	; 0x128
	PIT_TCTRL3 = 0;
60001554:	f8c3 7138 	str.w	r7, [r3, #312]	; 0x138
	if (!(SNVS_LPCR & SNVS_LPCR_SRTC_ENV)) {
60001558:	6b93      	ldr	r3, [r2, #56]	; 0x38
6000155a:	07db      	lsls	r3, r3, #31
6000155c:	d408      	bmi.n	60001570 <ResetHandler2+0x148>
		SNVS_LPSRTCMR = 1546300800u >> 17;
6000155e:	f642 6315 	movw	r3, #11797	; 0x2e15
		SNVS_LPSRTCLR = 1546300800u << 15;
60001562:	492b      	ldr	r1, [pc, #172]	; (60001610 <ResetHandler2+0x1e8>)
60001564:	6551      	str	r1, [r2, #84]	; 0x54
		SNVS_LPSRTCMR = 1546300800u >> 17;
60001566:	6513      	str	r3, [r2, #80]	; 0x50
		SNVS_LPCR |= SNVS_LPCR_SRTC_ENV;
60001568:	6b93      	ldr	r3, [r2, #56]	; 0x38
6000156a:	f043 0301 	orr.w	r3, r3, #1
6000156e:	6393      	str	r3, [r2, #56]	; 0x38
	SNVS_HPCR |= SNVS_HPCR_RTC_EN | SNVS_HPCR_HP_TS;
60001570:	4a26      	ldr	r2, [pc, #152]	; (6000160c <ResetHandler2+0x1e4>)
60001572:	4c28      	ldr	r4, [pc, #160]	; (60001614 <ResetHandler2+0x1ec>)
60001574:	6893      	ldr	r3, [r2, #8]
60001576:	f043 1301 	orr.w	r3, r3, #65537	; 0x10001
6000157a:	6093      	str	r3, [r2, #8]
	configure_external_ram();
6000157c:	f035 f876 	bl	6003666c <configure_external_ram>
	analog_init();
60001580:	f035 fbfe 	bl	60036d80 <analog_init>
	pwm_init();
60001584:	f035 fc80 	bl	60036e88 <__pwm_init_veneer>
	tempmon_init();
60001588:	f035 fa60 	bl	60036a4c <tempmon_init>
	startup_middle_hook();
6000158c:	f034 ffec 	bl	60036568 <startup_default_middle_hook>
// Returns the number of milliseconds since your program started running.
// This 32 bit number will roll back to zero after about 49.7 days.  For a
// simpler way to build delays or timeouts, consider using elapsedMillis.
static inline uint32_t millis(void)
{
	return systick_millis_count;
60001590:	6823      	ldr	r3, [r4, #0]
	while (millis() < TEENSY_INIT_USB_DELAY_BEFORE) ; // wait
60001592:	2b13      	cmp	r3, #19
60001594:	d9fc      	bls.n	60001590 <ResetHandler2+0x168>
	usb_init();
60001596:	f035 faf1 	bl	60036b7c <usb_init>
6000159a:	6823      	ldr	r3, [r4, #0]
	while (millis() < TEENSY_INIT_USB_DELAY_AFTER + TEENSY_INIT_USB_DELAY_BEFORE) ; // wait
6000159c:	f5b3 7f96 	cmp.w	r3, #300	; 0x12c
600015a0:	d3fb      	bcc.n	6000159a <ResetHandler2+0x172>
	startup_debug_reset();
600015a2:	f034 ffe5 	bl	60036570 <startup_debug_reset>
	startup_late_hook();
600015a6:	f034 ffe1 	bl	6003656c <startup_default_late_hoo